target datalayout = "e-m:e-p270:32:32-p271:32:32-p272:64:64-i64:64-i128:128-f80:128-n8:16:32:64-S128"
target triple = "x86_64-pc-linux-gnu"

%struct.stbir__sampler = type { ptr, ptr, ptr, ptr, %struct.stbir__scale_info, float, i32, ptr, ptr, i32, i32, i32, i32, i32, i32, i32, %struct.stbir__filter_extent_info, i32, i32, i32, i32, i32 }
%struct.stbir__scale_info = type { i32, i32, float, float, float, i32, i32, i32 }
%struct.stbir__filter_extent_info = type { i32, i32, i32 }

; Function Attrs: alwaysinline nounwind uwtable
define available_externally float @_mm_cvtss_f32(<4 x float> noundef %0) #2 {
  %2 = alloca <4 x float>, align 16
  store <4 x float> %0, ptr %2, align 16, !tbaa !12
  %3 = load <4 x float>, ptr %2, align 16, !tbaa !12
  %4 = extractelement <4 x float> %3, i32 0
  ret float %4
}

; Function Attrs: alwaysinline nounwind uwtable
define available_externally <4 x float> @_mm_add_ss(<4 x float> noundef %0, <4 x float> noundef %1) #2 {
  %3 = alloca <4 x float>, align 16
  %4 = alloca <4 x float>, align 16
  store <4 x float> %0, ptr %3, align 16, !tbaa !12
  store <4 x float> %1, ptr %4, align 16, !tbaa !12
  %5 = load <4 x float>, ptr %4, align 16, !tbaa !12
  %6 = extractelement <4 x float> %5, i32 0
  %7 = load <4 x float>, ptr %3, align 16
  %8 = extractelement <4 x float> %7, i32 0
  %9 = fadd float %8, %6
  %10 = load <4 x float>, ptr %3, align 16
  %11 = insertelement <4 x float> %10, float %9, i32 0
  store <4 x float> %11, ptr %3, align 16
  %12 = load <4 x float>, ptr %3, align 16, !tbaa !12
  ret <4 x float> %12
}

; Function Attrs: alwaysinline nounwind uwtable
define available_externally <4 x float> @_mm_and_ps(<4 x float> noundef %0, <4 x float> noundef %1) #2 {
  %3 = alloca <4 x float>, align 16
  %4 = alloca <4 x float>, align 16
  store <4 x float> %0, ptr %3, align 16, !tbaa !12
  store <4 x float> %1, ptr %4, align 16, !tbaa !12
  %5 = load <4 x float>, ptr %3, align 16, !tbaa !12
  %6 = bitcast <4 x float> %5 to <4 x i32>
  %7 = load <4 x float>, ptr %4, align 16, !tbaa !12
  %8 = bitcast <4 x float> %7 to <4 x i32>
  %9 = and <4 x i32> %6, %8
  %10 = bitcast <4 x i32> %9 to <4 x float>
  ret <4 x float> %10
}

; Function Attrs: alwaysinline nounwind uwtable
define available_externally <4 x float> @_mm_cmplt_ss(<4 x float> noundef %0, <4 x float> noundef %1) #2 {
  %3 = alloca <4 x float>, align 16
  %4 = alloca <4 x float>, align 16
  store <4 x float> %0, ptr %3, align 16, !tbaa !12
  store <4 x float> %1, ptr %4, align 16, !tbaa !12
  %5 = load <4 x float>, ptr %3, align 16, !tbaa !12
  %6 = load <4 x float>, ptr %4, align 16, !tbaa !12
  %7 = call <4 x float> @llvm.x86.sse.cmp.ss(<4 x float> %5, <4 x float> %6, i8 1)
  ret <4 x float> %7
}

; Function Attrs: alwaysinline nounwind uwtable
define available_externally <4 x float> @_mm_cvtepi32_ps(<2 x i64> noundef %0) #2 {
  %2 = alloca <2 x i64>, align 16
  store <2 x i64> %0, ptr %2, align 16, !tbaa !12
  %3 = load <2 x i64>, ptr %2, align 16, !tbaa !12
  %4 = bitcast <2 x i64> %3 to <4 x i32>
  %5 = sitofp <4 x i32> %4 to <4 x float>
  ret <4 x float> %5
}

; Function Attrs: alwaysinline nounwind uwtable
define available_externally <2 x i64> @_mm_cvttps_epi32(<4 x float> noundef %0) #2 {
  %2 = alloca <4 x float>, align 16
  store <4 x float> %0, ptr %2, align 16, !tbaa !12
  %3 = load <4 x float>, ptr %2, align 16, !tbaa !12
  %4 = call <4 x i32> @llvm.x86.sse2.cvttps2dq(<4 x float> %3)
  %5 = bitcast <4 x i32> %4 to <2 x i64>
  ret <2 x i64> %5
}

; Function Attrs: alwaysinline nounwind uwtable
define available_externally <4 x float> @_mm_set_ss(float noundef %0) #2 {
  %2 = alloca float, align 4
  %3 = alloca <4 x float>, align 16
  store float %0, ptr %2, align 4, !tbaa !29
  %4 = load float, ptr %2, align 4, !tbaa !29
  %5 = insertelement <4 x float> poison, float %4, i32 0
  %6 = insertelement <4 x float> %5, float 0.000000e+00, i32 1
  %7 = insertelement <4 x float> %6, float 0.000000e+00, i32 2
  %8 = insertelement <4 x float> %7, float 0.000000e+00, i32 3
  store <4 x float> %8, ptr %3, align 16, !tbaa !12
  %9 = load <4 x float>, ptr %3, align 16, !tbaa !12
  ret <4 x float> %9
}

; Function Attrs: inlinehint nounwind uwtable
define available_externally float @stbir_simd_ceilf(float noundef %0) #4 {
  %2 = alloca float, align 4
  %3 = alloca <4 x float>, align 16
  %4 = alloca <4 x float>, align 16
  %5 = alloca <4 x float>, align 16
  store float %0, ptr %2, align 4, !tbaa !29
  call void @llvm.lifetime.start.p0(i64 16, ptr %3) #12
  %6 = load float, ptr %2, align 4, !tbaa !29
  %7 = call <4 x float> @_mm_set_ss(float noundef %6)
  store <4 x float> %7, ptr %3, align 16, !tbaa !12
  call void @llvm.lifetime.start.p0(i64 16, ptr %4) #12
  %8 = load <4 x float>, ptr %3, align 16, !tbaa !12
  %9 = call <2 x i64> @_mm_cvttps_epi32(<4 x float> noundef %8)
  %10 = call <4 x float> @_mm_cvtepi32_ps(<2 x i64> noundef %9)
  store <4 x float> %10, ptr %4, align 16, !tbaa !12
  call void @llvm.lifetime.start.p0(i64 16, ptr %5) #12
  %11 = load <4 x float>, ptr %4, align 16, !tbaa !12
  %12 = load <4 x float>, ptr %4, align 16, !tbaa !12
  %13 = load <4 x float>, ptr %3, align 16, !tbaa !12
  %14 = call <4 x float> @_mm_cmplt_ss(<4 x float> noundef %12, <4 x float> noundef %13)
  %15 = call <4 x float> @_mm_set_ss(float noundef 1.000000e+00)
  %16 = call <4 x float> @_mm_and_ps(<4 x float> noundef %14, <4 x float> noundef %15)
  %17 = call <4 x float> @_mm_add_ss(<4 x float> noundef %11, <4 x float> noundef %16)
  store <4 x float> %17, ptr %5, align 16, !tbaa !12
  %18 = load <4 x float>, ptr %5, align 16, !tbaa !12
  %19 = call float @_mm_cvtss_f32(<4 x float> noundef %18)
  call void @llvm.lifetime.end.p0(i64 16, ptr %5) #12
  call void @llvm.lifetime.end.p0(i64 16, ptr %4) #12
  call void @llvm.lifetime.end.p0(i64 16, ptr %3) #12
  ret float %19
}

; Function Attrs: nounwind uwtable
define i32 @stbir__get_coefficient_width(ptr noundef %0, i32 noundef %1, ptr noundef %2) #3 {
  %4 = alloca i32, align 4
  %5 = alloca ptr, align 8
  %6 = alloca i32, align 4
  %7 = alloca ptr, align 8
  %8 = alloca float, align 4
  %9 = alloca ptr, align 8
  %10 = alloca i32, align 4
  store ptr %0, ptr %5, align 8, !tbaa !3
  store i32 %1, ptr %6, align 4, !tbaa !26
  store ptr %2, ptr %7, align 8, !tbaa !3
  call void @llvm.lifetime.start.p0(i64 4, ptr %8) #12
  %11 = load ptr, ptr %5, align 8, !tbaa !3
  %12 = getelementptr inbounds nuw %struct.stbir__sampler, ptr %11, i32 0, i32 4
  %13 = getelementptr inbounds nuw %struct.stbir__scale_info, ptr %12, i32 0, i32 2
  %14 = load float, ptr %13, align 8, !tbaa !31
  store float %14, ptr %8, align 4, !tbaa !29
  call void @llvm.lifetime.start.p0(i64 8, ptr %9) #12
  %15 = load ptr, ptr %5, align 8, !tbaa !3
  %16 = getelementptr inbounds nuw %struct.stbir__sampler, ptr %15, i32 0, i32 8
  %17 = load ptr, ptr %16, align 8, !tbaa !35
  store ptr %17, ptr %9, align 8, !tbaa !3
  %18 = load i32, ptr %6, align 4, !tbaa !26
  switch i32 %18, label %46 [
    i32 1, label %19
    i32 2, label %28
    i32 0, label %38
  ]

19:                                               ; preds = %3
  %20 = load ptr, ptr %9, align 8, !tbaa !3
  %21 = load float, ptr %8, align 4, !tbaa !29
  %22 = fdiv float 1.000000e+00, %21
  %23 = load ptr, ptr %7, align 8, !tbaa !3
  %24 = call float %20(float noundef %22, ptr noundef %23)
  %25 = fmul float %24, 2.000000e+00
  %26 = call float @stbir_simd_ceilf(float noundef %25)
  %27 = fptosi float %26 to i32
  store i32 %27, ptr %4, align 4
  store i32 1, ptr %10, align 4
  br label %47

28:                                               ; preds = %3
  %29 = load ptr, ptr %9, align 8, !tbaa !3
  %30 = load float, ptr %8, align 4, !tbaa !29
  %31 = load ptr, ptr %7, align 8, !tbaa !3
  %32 = call float %29(float noundef %30, ptr noundef %31)
  %33 = fmul float %32, 2.000000e+00
  %34 = load float, ptr %8, align 4, !tbaa !29
  %35 = fdiv float %33, %34
  %36 = call float @stbir_simd_ceilf(float noundef %35)
  %37 = fptosi float %36 to i32
  store i32 %37, ptr %4, align 4
  store i32 1, ptr %10, align 4
  br label %47

38:                                               ; preds = %3
  %39 = load ptr, ptr %9, align 8, !tbaa !3
  %40 = load float, ptr %8, align 4, !tbaa !29
  %41 = load ptr, ptr %7, align 8, !tbaa !3
  %42 = call float %39(float noundef %40, ptr noundef %41)
  %43 = fmul float %42, 2.000000e+00
  %44 = call float @stbir_simd_ceilf(float noundef %43)
  %45 = fptosi float %44 to i32
  store i32 %45, ptr %4, align 4
  store i32 1, ptr %10, align 4
  br label %47

46:                                               ; preds = %3
  store i32 0, ptr %4, align 4
  store i32 1, ptr %10, align 4
  br label %47

47:                                               ; preds = %46, %38, %28, %19
  call void @llvm.lifetime.end.p0(i64 8, ptr %9) #12
  call void @llvm.lifetime.end.p0(i64 4, ptr %8) #12
  %48 = load i32, ptr %4, align 4
  ret i32 %48
}