; Function Attrs: nounwind uwtable
define i32 @stbir__get_coefficient_width(ptr noundef readonly captures(none) %0, i32 noundef %1, ptr noundef %2) local_unnamed_addr #0 {
  %4 = getelementptr inbounds nuw i8, ptr %0, i64 40
  %5 = load float, ptr %4, align 8, !tbaa !21
  %6 = getelementptr inbounds nuw i8, ptr %0, i64 80
  %7 = load ptr, ptr %6, align 8, !tbaa !28
  switch i32 %1, label %29 [
    i32 1, label %8
    i32 2, label %12
    i32 0, label %16
  ]

8:                                                ; preds = %3
  %9 = fdiv float 1.000000e+00, %5
  %10 = tail call float %7(float noundef %9, ptr noundef %2) #24
  %11 = fmul float %10, 2.000000e+00
  br label %.sink.split

12:                                               ; preds = %3
  %13 = tail call float %7(float noundef %5, ptr noundef %2) #24
  %14 = fmul float %13, 2.000000e+00
  %15 = fdiv float %14, %5
  br label %.sink.split

16:                                               ; preds = %3
  %17 = tail call float %7(float noundef %5, ptr noundef %2) #24
  %18 = fmul float %17, 2.000000e+00
  br label %.sink.split

.sink.split:                                      ; preds = %8, %12, %16
  %.sink22 = phi float [ %18, %16 ], [ %15, %12 ], [ %11, %8 ]
  %19 = insertelement <4 x float> <float poison, float 0.000000e+00, float 0.000000e+00, float 0.000000e+00>, float %.sink22, i64 0
  %20 = tail call <4 x i32> @llvm.x86.sse2.cvttps2dq(<4 x float> %19)
  %21 = sitofp <4 x i32> %20 to <4 x float>
  %22 = tail call <4 x float> @llvm.x86.sse.cmp.ss(<4 x float> %21, <4 x float> %19, i8 1)
  %23 = bitcast <4 x float> %22 to <4 x i32>
  %24 = and <4 x i32> %23, <i32 1065353216, i32 poison, i32 poison, i32 poison>
  %25 = bitcast <4 x i32> %24 to <4 x float>
  %26 = fadd <4 x float> %21, %25
  %27 = extractelement <4 x float> %26, i64 0
  %28 = fptosi float %27 to i32
  br label %29

29:                                               ; preds = %.sink.split, %3
  %.0 = phi i32 [ 0, %3 ], [ %28, %.sink.split ]
  ret i32 %.0
}